; Function Attrs: null_pointer_is_valid sspstrong uwtable
define internal fastcc void @dissect_uftp_proxykey(ptr noundef %0, ptr noundef %1, ptr noundef %2) unnamed_addr #0 {
  %4 = tail call i32 @tvb_reported_length(ptr noundef %0)
  %5 = icmp ult i32 %4, 16
  br i1 %5, label %6, label %9

6:                                                ; preds = %3
  %7 = tail call i32 @tvb_reported_length(ptr noundef %0)
  %8 = tail call ptr (ptr, ptr, ptr, ptr, i32, i32, ptr, ...) @proto_tree_add_expert_format(ptr noundef %2, ptr noundef %1, ptr noundef nonnull @ei_uftp_length_invalid, ptr noundef %0, i32 noundef 0, i32 noundef -1, ptr noundef nonnull @.str.289, i32 noundef %7)
  br label %45

9:                                                ; preds = %3
  %10 = tail call zeroext i16 @tvb_get_ntohs(ptr noundef %0, i32 noundef 8)
  %11 = tail call zeroext i16 @tvb_get_ntohs(ptr noundef %0, i32 noundef 10)
  %12 = tail call i32 @tvb_reported_length(ptr noundef %0)
  %13 = zext i16 %10 to i32
  %14 = add nuw nsw i32 %13, 16
  %15 = zext i16 %11 to i32
  %16 = add nuw nsw i32 %14, %15
  %17 = icmp slt i32 %12, %16
  br i1 %17, label %18, label %21

18:                                               ; preds = %9
  %19 = tail call i32 @tvb_reported_length(ptr noundef %0)
  %20 = tail call ptr (ptr, ptr, ptr, ptr, i32, i32, ptr, ...) @proto_tree_add_expert_format(ptr noundef %2, ptr noundef %1, ptr noundef nonnull @ei_uftp_length_invalid, ptr noundef %0, i32 noundef 0, i32 noundef -1, ptr noundef nonnull @.str.298, i32 noundef %19, i32 noundef %13, i32 noundef %15)
  br label %45

21:                                               ; preds = %9
  %22 = load i32, ptr @hf_uftp_proxykey, align 4
  %23 = tail call ptr @proto_tree_add_item(ptr noundef %2, i32 noundef %22, ptr noundef %0, i32 noundef 0, i32 noundef -1, i32 noundef 0)
  %24 = load i32, ptr @ett_uftp_proxykey, align 4
  %25 = tail call ptr @proto_item_add_subtree(ptr noundef %23, i32 noundef %24)
  %26 = load i32, ptr @hf_uftp_proxykey_func, align 4
  %27 = tail call ptr @proto_tree_add_item(ptr noundef %25, i32 noundef %26, ptr noundef %0, i32 noundef 0, i32 noundef 1, i32 noundef 0)
  %28 = load i32, ptr @hf_uftp_proxykey_reserved, align 4
  %29 = tail call ptr @proto_tree_add_item(ptr noundef %25, i32 noundef %28, ptr noundef %0, i32 noundef 1, i32 noundef 3, i32 noundef 0)
  %30 = load i32, ptr @hf_uftp_proxykey_nonce, align 4
  %31 = tail call ptr @proto_tree_add_item(ptr noundef %25, i32 noundef %30, ptr noundef %0, i32 noundef 4, i32 noundef 4, i32 noundef 0)
  %32 = load i32, ptr @hf_uftp_proxykey_keylen, align 4
  %33 = tail call ptr @proto_tree_add_item(ptr noundef %25, i32 noundef %32, ptr noundef %0, i32 noundef 8, i32 noundef 2, i32 noundef 0)
  %34 = load i32, ptr @hf_uftp_proxykey_siglen, align 4
  %35 = tail call ptr @proto_tree_add_item(ptr noundef %25, i32 noundef %34, ptr noundef %0, i32 noundef 10, i32 noundef 2, i32 noundef 0)
  %36 = load i32, ptr @hf_uftp_proxykey_keyexp, align 4
  %37 = tail call ptr @proto_tree_add_item(ptr noundef %25, i32 noundef %36, ptr noundef %0, i32 noundef 12, i32 noundef 4, i32 noundef 0)
  %.not = icmp eq i16 %10, 0
  br i1 %.not, label %41, label %38

38:                                               ; preds = %21
  %39 = load i32, ptr @hf_uftp_proxykey_keymod, align 4
  %40 = tail call ptr @proto_tree_add_item(ptr noundef %25, i32 noundef %39, ptr noundef %0, i32 noundef 16, i32 noundef %13, i32 noundef 0)
  br label %41

41:                                               ; preds = %38, %21
  %.0 = phi i32 [ %14, %38 ], [ 16, %21 ]
  %.not59 = icmp eq i16 %11, 0
  br i1 %.not59, label %45, label %42

42:                                               ; preds = %41
  %43 = load i32, ptr @hf_uftp_proxykey_verify, align 4
  %44 = tail call ptr @proto_tree_add_item(ptr noundef %25, i32 noundef %43, ptr noundef %0, i32 noundef %.0, i32 noundef %15, i32 noundef 0)
  br label %45

45:                                               ; preds = %41, %42, %18, %6
  ret void
}